target datalayout = "e-m:e-p270:32:32-p271:32:32-p272:64:64-i64:64-i128:128-f80:128-n8:16:32:64-S128"
target triple = "x86_64-pc-linux-gnu"

%struct.H5VL_dyn_op_t = type { ptr, i32 }

@H5VL_init_g = external global i8, align 1
@H5_libterm_g = external global i8, align 1
@H5VL_opt_ops_g = internal global [13 x ptr] zeroinitializer, align 16
@.str = private unnamed_addr constant [105 x i8] c"generated/home/dtcxzyw/WorkSpace/Projects/compilers/llvm-opt-benchmark/bench/hdf5/hdf5/src/H5VLdyn_ops.c\00", align 1
@__func__.H5VL__register_opt_operation = private unnamed_addr constant [29 x i8] c"H5VL__register_opt_operation\00", align 1
@H5E_VOL_g = external global i64, align 8
@H5E_EXISTS_g = external global i64, align 8
@.str.1 = private unnamed_addr constant [30 x i8] c"operation name already exists\00", align 1
@H5E_CANTCREATE_g = external global i64, align 8
@.str.2 = private unnamed_addr constant [38 x i8] c"can't create skip list for operations\00", align 1
@H5E_CANTALLOC_g = external global i64, align 8
@.str.3 = private unnamed_addr constant [49 x i8] c"can't allocate memory for dynamic operation info\00", align 1
@.str.4 = private unnamed_addr constant [47 x i8] c"can't allocate name for dynamic operation info\00", align 1
@H5VL_opt_vals_g = internal global [13 x i32] [i32 1024, i32 1024, i32 1024, i32 1024, i32 1024, i32 1024, i32 1024, i32 1024, i32 1024, i32 1024, i32 1024, i32 1024, i32 1024], align 16
@H5E_CANTINSERT_g = external global i64, align 8
@.str.5 = private unnamed_addr constant [43 x i8] c"can't insert operation info into skip list\00", align 1
@H5_H5VL_dyn_op_t_reg_free_list = internal global { i8, [3 x i8], i32, i32, [4 x i8], ptr, i64, ptr } { i8 0, [3 x i8] zeroinitializer, i32 0, i32 0, [4 x i8] zeroinitializer, ptr @.str.8, i64 16, ptr null }, align 8

; Function Attrs: nounwind uwtable
define i32 @H5VL__register_opt_operation(i32 noundef %0, ptr noundef %1, ptr noundef %2) #0 {
  %4 = alloca i32, align 4
  %5 = alloca ptr, align 8
  %6 = alloca ptr, align 8
  %7 = alloca ptr, align 8
  %8 = alloca i32, align 4
  %9 = alloca i8, align 1
  store i32 %0, ptr %4, align 4, !tbaa !19
  store ptr %1, ptr %5, align 8, !tbaa !21
  store ptr %2, ptr %6, align 8, !tbaa !23
  call void @llvm.lifetime.start.p0(i64 8, ptr %7) #4
  call void @llvm.lifetime.start.p0(i64 4, ptr %8) #4
  store i32 0, ptr %8, align 4, !tbaa !19
  call void @llvm.lifetime.start.p0(i64 1, ptr %9) #4
  store i8 0, ptr %9, align 1, !tbaa !3
  %10 = load i8, ptr @H5VL_init_g, align 1, !tbaa !3, !range !7, !noundef !8
  %11 = trunc i8 %10 to i1
  br i1 %11, label %16, label %12

12:                                               ; preds = %3
  %13 = load i8, ptr @H5_libterm_g, align 1, !tbaa !3, !range !7, !noundef !8
  %14 = trunc i8 %13 to i1
  %15 = xor i1 %14, true
  br label %16

16:                                               ; preds = %12, %3
  %17 = phi i1 [ true, %3 ], [ %15, %12 ]
  %18 = xor i1 %17, true
  %19 = xor i1 %18, true
  %20 = zext i1 %19 to i32
  %21 = sext i32 %20 to i64
  %22 = call i64 @llvm.expect.i64(i64 %21, i64 1)
  %23 = icmp ne i64 %22, 0
  br i1 %23, label %24, label %174

24:                                               ; preds = %16
  %25 = load i32, ptr %4, align 4, !tbaa !19
  %26 = zext i32 %25 to i64
  %27 = getelementptr inbounds nuw [13 x ptr], ptr @H5VL_opt_ops_g, i64 0, i64 %26
  %28 = load ptr, ptr %27, align 8, !tbaa !11
  %29 = icmp ne ptr %28, null
  br i1 %29, label %30, label %58

30:                                               ; preds = %24
  %31 = load i32, ptr %4, align 4, !tbaa !19
  %32 = zext i32 %31 to i64
  %33 = getelementptr inbounds nuw [13 x ptr], ptr @H5VL_opt_ops_g, i64 0, i64 %32
  %34 = load ptr, ptr %33, align 8, !tbaa !11
  %35 = load ptr, ptr %5, align 8, !tbaa !21
  %36 = call ptr @H5SL_search(ptr noundef %34, ptr noundef %35)
  %37 = icmp ne ptr null, %36
  br i1 %37, label %38, label %57

38:                                               ; preds = %30
  br label %39

39:                                               ; preds = %38
  br label %40

40:                                               ; preds = %39
  br label %41

41:                                               ; preds = %40
  %42 = load i64, ptr @H5E_VOL_g, align 8, !tbaa !9
  %43 = load i64, ptr @H5E_EXISTS_g, align 8, !tbaa !9
  %44 = call i32 (ptr, ptr, i32, i64, i64, ptr, ...) @H5E_printf_stack(ptr noundef @.str, ptr noundef @__func__.H5VL__register_opt_operation, i32 noundef 203, i64 noundef %42, i64 noundef %43, ptr noundef @.str.1)
  br label %45

45:                                               ; preds = %41
  br label %46

46:                                               ; preds = %45
  store i8 1, ptr %9, align 1, !tbaa !3
  %47 = load i8, ptr %9, align 1, !tbaa !3, !range !7, !noundef !8
  %48 = trunc i8 %47 to i1
  %49 = zext i1 %48 to i8
  store i8 %49, ptr %9, align 1, !tbaa !3
  br label %50

50:                                               ; preds = %46
  br label %51

51:                                               ; preds = %50
  br label %52

52:                                               ; preds = %51
  store i32 -1, ptr %8, align 4, !tbaa !19
  br label %173

53:                                               ; No predecessors!
  br label %54

54:                                               ; preds = %53
  br label %55

55:                                               ; preds = %54
  br label %56

56:                                               ; preds = %55
  br label %57

57:                                               ; preds = %56, %30
  br label %84

58:                                               ; preds = %24
  %59 = call ptr @H5SL_create(i32 noundef 2, ptr noundef null)
  %60 = load i32, ptr %4, align 4, !tbaa !19
  %61 = zext i32 %60 to i64
  %62 = getelementptr inbounds nuw [13 x ptr], ptr @H5VL_opt_ops_g, i64 0, i64 %61
  store ptr %59, ptr %62, align 8, !tbaa !11
  %63 = icmp eq ptr null, %59
  br i1 %63, label %64, label %83

64:                                               ; preds = %58
  br label %65

65:                                               ; preds = %64
  br label %66

66:                                               ; preds = %65
  br label %67

67:                                               ; preds = %66
  %68 = load i64, ptr @H5E_VOL_g, align 8, !tbaa !9
  %69 = load i64, ptr @H5E_CANTCREATE_g, align 8, !tbaa !9
  %70 = call i32 (ptr, ptr, i32, i64, i64, ptr, ...) @H5E_printf_stack(ptr noundef @.str, ptr noundef @__func__.H5VL__register_opt_operation, i32 noundef 208, i64 noundef %68, i64 noundef %69, ptr noundef @.str.2)
  br label %71

71:                                               ; preds = %67
  br label %72

72:                                               ; preds = %71
  store i8 1, ptr %9, align 1, !tbaa !3
  %73 = load i8, ptr %9, align 1, !tbaa !3, !range !7, !noundef !8
  %74 = trunc i8 %73 to i1
  %75 = zext i1 %74 to i8
  store i8 %75, ptr %9, align 1, !tbaa !3
  br label %76

76:                                               ; preds = %72
  br label %77

77:                                               ; preds = %76
  br label %78

78:                                               ; preds = %77
  store i32 -1, ptr %8, align 4, !tbaa !19
  br label %173

79:                                               ; No predecessors!
  br label %80

80:                                               ; preds = %79
  br label %81

81:                                               ; preds = %80
  br label %82

82:                                               ; preds = %81
  br label %83

83:                                               ; preds = %82, %58
  br label %84

84:                                               ; preds = %83, %57
  %85 = call noalias ptr @H5FL_reg_calloc(ptr noundef @H5_H5VL_dyn_op_t_reg_free_list)
  store ptr %85, ptr %7, align 8, !tbaa !17
  %86 = icmp eq ptr null, %85
  br i1 %86, label %87, label %106

87:                                               ; preds = %84
  br label %88

88:                                               ; preds = %87
  br label %89

89:                                               ; preds = %88
  br label %90

90:                                               ; preds = %89
  %91 = load i64, ptr @H5E_VOL_g, align 8, !tbaa !9
  %92 = load i64, ptr @H5E_CANTALLOC_g, align 8, !tbaa !9
  %93 = call i32 (ptr, ptr, i32, i64, i64, ptr, ...) @H5E_printf_stack(ptr noundef @.str, ptr noundef @__func__.H5VL__register_opt_operation, i32 noundef 213, i64 noundef %91, i64 noundef %92, ptr noundef @.str.3)
  br label %94

94:                                               ; preds = %90
  br label %95

95:                                               ; preds = %94
  store i8 1, ptr %9, align 1, !tbaa !3
  %96 = load i8, ptr %9, align 1, !tbaa !3, !range !7, !noundef !8
  %97 = trunc i8 %96 to i1
  %98 = zext i1 %97 to i8
  store i8 %98, ptr %9, align 1, !tbaa !3
  br label %99

99:                                               ; preds = %95
  br label %100

100:                                              ; preds = %99
  br label %101

101:                                              ; preds = %100
  store i32 -1, ptr %8, align 4, !tbaa !19
  br label %173

102:                                              ; No predecessors!
  br label %103

103:                                              ; preds = %102
  br label %104

104:                                              ; preds = %103
  br label %105

105:                                              ; preds = %104
  br label %106

106:                                              ; preds = %105, %84
  %107 = load ptr, ptr %5, align 8, !tbaa !21
  %108 = call noalias ptr @H5MM_strdup(ptr noundef %107)
  %109 = load ptr, ptr %7, align 8, !tbaa !17
  %110 = getelementptr inbounds nuw %struct.H5VL_dyn_op_t, ptr %109, i32 0, i32 0
  store ptr %108, ptr %110, align 8, !tbaa !25
  %111 = icmp eq ptr null, %108
  br i1 %111, label %112, label %131

112:                                              ; preds = %106
  br label %113

113:                                              ; preds = %112
  br label %114

114:                                              ; preds = %113
  br label %115

115:                                              ; preds = %114
  %116 = load i64, ptr @H5E_VOL_g, align 8, !tbaa !9
  %117 = load i64, ptr @H5E_CANTALLOC_g, align 8, !tbaa !9
  %118 = call i32 (ptr, ptr, i32, i64, i64, ptr, ...) @H5E_printf_stack(ptr noundef @.str, ptr noundef @__func__.H5VL__register_opt_operation, i32 noundef 215, i64 noundef %116, i64 noundef %117, ptr noundef @.str.4)
  br label %119

119:                                              ; preds = %115
  br label %120

120:                                              ; preds = %119
  store i8 1, ptr %9, align 1, !tbaa !3
  %121 = load i8, ptr %9, align 1, !tbaa !3, !range !7, !noundef !8
  %122 = trunc i8 %121 to i1
  %123 = zext i1 %122 to i8
  store i8 %123, ptr %9, align 1, !tbaa !3
  br label %124

124:                                              ; preds = %120
  br label %125

125:                                              ; preds = %124
  br label %126

126:                                              ; preds = %125
  store i32 -1, ptr %8, align 4, !tbaa !19
  br label %173

127:                                              ; No predecessors!
  br label %128

128:                                              ; preds = %127
  br label %129

129:                                              ; preds = %128
  br label %130

130:                                              ; preds = %129
  br label %131

131:                                              ; preds = %130, %106
  %132 = load i32, ptr %4, align 4, !tbaa !19
  %133 = zext i32 %132 to i64
  %134 = getelementptr inbounds nuw [13 x i32], ptr @H5VL_opt_vals_g, i64 0, i64 %133
  %135 = load i32, ptr %134, align 4, !tbaa !19
  %136 = add nsw i32 %135, 1
  store i32 %136, ptr %134, align 4, !tbaa !19
  %137 = load ptr, ptr %7, align 8, !tbaa !17
  %138 = getelementptr inbounds nuw %struct.H5VL_dyn_op_t, ptr %137, i32 0, i32 1
  store i32 %135, ptr %138, align 8, !tbaa !27
  %139 = load i32, ptr %4, align 4, !tbaa !19
  %140 = zext i32 %139 to i64
  %141 = getelementptr inbounds nuw [13 x ptr], ptr @H5VL_opt_ops_g, i64 0, i64 %140
  %142 = load ptr, ptr %141, align 8, !tbaa !11
  %143 = load ptr, ptr %7, align 8, !tbaa !17
  %144 = load ptr, ptr %7, align 8, !tbaa !17
  %145 = getelementptr inbounds nuw %struct.H5VL_dyn_op_t, ptr %144, i32 0, i32 0
  %146 = load ptr, ptr %145, align 8, !tbaa !25
  %147 = call i32 @H5SL_insert(ptr noundef %142, ptr noundef %143, ptr noundef %146)
  %148 = icmp slt i32 %147, 0
  br i1 %148, label %149, label %168

149:                                              ; preds = %131
  br label %150

150:                                              ; preds = %149
  br label %151

151:                                              ; preds = %150
  br label %152

152:                                              ; preds = %151
  %153 = load i64, ptr @H5E_VOL_g, align 8, !tbaa !9
  %154 = load i64, ptr @H5E_CANTINSERT_g, align 8, !tbaa !9
  %155 = call i32 (ptr, ptr, i32, i64, i64, ptr, ...) @H5E_printf_stack(ptr noundef @.str, ptr noundef @__func__.H5VL__register_opt_operation, i32 noundef 220, i64 noundef %153, i64 noundef %154, ptr noundef @.str.5)
  br label %156

156:                                              ; preds = %152
  br label %157

157:                                              ; preds = %156
  store i8 1, ptr %9, align 1, !tbaa !3
  %158 = load i8, ptr %9, align 1, !tbaa !3, !range !7, !noundef !8
  %159 = trunc i8 %158 to i1
  %160 = zext i1 %159 to i8
  store i8 %160, ptr %9, align 1, !tbaa !3
  br label %161

161:                                              ; preds = %157
  br label %162

162:                                              ; preds = %161
  br label %163

163:                                              ; preds = %162
  store i32 -1, ptr %8, align 4, !tbaa !19
  br label %173

164:                                              ; No predecessors!
  br label %165

165:                                              ; preds = %164
  br label %166

166:                                              ; preds = %165
  br label %167

167:                                              ; preds = %166
  br label %168

168:                                              ; preds = %167, %131
  %169 = load ptr, ptr %7, align 8, !tbaa !17
  %170 = getelementptr inbounds nuw %struct.H5VL_dyn_op_t, ptr %169, i32 0, i32 1
  %171 = load i32, ptr %170, align 8, !tbaa !27
  %172 = load ptr, ptr %6, align 8, !tbaa !23
  store i32 %171, ptr %172, align 4, !tbaa !19
  br label %173

173:                                              ; preds = %168, %163, %126, %101, %78, %52
  br label %174

174:                                              ; preds = %173, %16
  %175 = load i32, ptr %8, align 4, !tbaa !19
  call void @llvm.lifetime.end.p0(i64 1, ptr %9) #4
  call void @llvm.lifetime.end.p0(i64 4, ptr %8) #4
  call void @llvm.lifetime.end.p0(i64 8, ptr %7) #4
  ret i32 %175
}