; Function Attrs: nounwind uwtable
define range(i32 -1, 1) i32 @H5VL__register_opt_operation(i32 noundef %0, ptr noundef %1, ptr noundef writeonly captures(none) %2) local_unnamed_addr #0 {
  %4 = load i8, ptr @H5VL_init_g, align 1, !tbaa !3, !range !7, !noundef !8
  %5 = trunc nuw i8 %4 to i1
  %6 = load i8, ptr @H5_libterm_g, align 1, !range !7
  %7 = trunc nuw i8 %6 to i1
  %8 = xor i1 %7, true
  %9 = select i1 %5, i1 true, i1 %8
  br i1 %9, label %10, label %55, !prof !9

10:                                               ; preds = %3
  %11 = zext i32 %0 to i64
  %12 = getelementptr inbounds nuw [13 x ptr], ptr @H5VL_opt_ops_g, i64 0, i64 %11
  %13 = load ptr, ptr %12, align 8, !tbaa !10
  %.not = icmp eq ptr %13, null
  br i1 %.not, label %20, label %14

14:                                               ; preds = %10
  %15 = tail call ptr @H5SL_search(ptr noundef nonnull %13, ptr noundef %1) #2
  %.not20 = icmp eq ptr %15, null
  br i1 %.not20, label %27, label %16

16:                                               ; preds = %14
  %17 = load i64, ptr @H5E_VOL_g, align 8, !tbaa !19
  %18 = load i64, ptr @H5E_EXISTS_g, align 8, !tbaa !19
  %19 = tail call i32 (ptr, ptr, i32, i64, i64, ptr, ...) @H5E_printf_stack(ptr noundef nonnull @.str, ptr noundef nonnull @__func__.H5VL__register_opt_operation, i32 noundef 203, i64 noundef %17, i64 noundef %18, ptr noundef nonnull @.str.1) #2
  br label %55

20:                                               ; preds = %10
  %21 = tail call ptr @H5SL_create(i32 noundef 2, ptr noundef null) #2
  store ptr %21, ptr %12, align 8, !tbaa !10
  %22 = icmp eq ptr %21, null
  br i1 %22, label %23, label %27

23:                                               ; preds = %20
  %24 = load i64, ptr @H5E_VOL_g, align 8, !tbaa !19
  %25 = load i64, ptr @H5E_CANTCREATE_g, align 8, !tbaa !19
  %26 = tail call i32 (ptr, ptr, i32, i64, i64, ptr, ...) @H5E_printf_stack(ptr noundef nonnull @.str, ptr noundef nonnull @__func__.H5VL__register_opt_operation, i32 noundef 208, i64 noundef %24, i64 noundef %25, ptr noundef nonnull @.str.2) #2
  br label %55

27:                                               ; preds = %20, %14
  %28 = tail call noalias ptr @H5FL_reg_calloc(ptr noundef nonnull @H5_H5VL_dyn_op_t_reg_free_list) #2
  %29 = icmp eq ptr %28, null
  br i1 %29, label %30, label %34

30:                                               ; preds = %27
  %31 = load i64, ptr @H5E_VOL_g, align 8, !tbaa !19
  %32 = load i64, ptr @H5E_CANTALLOC_g, align 8, !tbaa !19
  %33 = tail call i32 (ptr, ptr, i32, i64, i64, ptr, ...) @H5E_printf_stack(ptr noundef nonnull @.str, ptr noundef nonnull @__func__.H5VL__register_opt_operation, i32 noundef 213, i64 noundef %31, i64 noundef %32, ptr noundef nonnull @.str.3) #2
  br label %55

34:                                               ; preds = %27
  %35 = tail call noalias ptr @H5MM_strdup(ptr noundef %1) #2
  store ptr %35, ptr %28, align 8, !tbaa !15
  %36 = icmp eq ptr %35, null
  br i1 %36, label %37, label %41

37:                                               ; preds = %34
  %38 = load i64, ptr @H5E_VOL_g, align 8, !tbaa !19
  %39 = load i64, ptr @H5E_CANTALLOC_g, align 8, !tbaa !19
  %40 = tail call i32 (ptr, ptr, i32, i64, i64, ptr, ...) @H5E_printf_stack(ptr noundef nonnull @.str, ptr noundef nonnull @__func__.H5VL__register_opt_operation, i32 noundef 215, i64 noundef %38, i64 noundef %39, ptr noundef nonnull @.str.4) #2
  br label %55

41:                                               ; preds = %34
  %42 = getelementptr inbounds nuw [13 x i32], ptr @H5VL_opt_vals_g, i64 0, i64 %11
  %43 = load i32, ptr %42, align 4, !tbaa !21
  %44 = add nsw i32 %43, 1
  store i32 %44, ptr %42, align 4, !tbaa !21
  %45 = getelementptr inbounds nuw i8, ptr %28, i64 8
  store i32 %43, ptr %45, align 8, !tbaa !22
  %46 = load ptr, ptr %12, align 8, !tbaa !10
  %47 = tail call i32 @H5SL_insert(ptr noundef %46, ptr noundef nonnull %28, ptr noundef nonnull %35) #2
  %48 = icmp slt i32 %47, 0
  br i1 %48, label %49, label %53

49:                                               ; preds = %41
  %50 = load i64, ptr @H5E_VOL_g, align 8, !tbaa !19
  %51 = load i64, ptr @H5E_CANTINSERT_g, align 8, !tbaa !19
  %52 = tail call i32 (ptr, ptr, i32, i64, i64, ptr, ...) @H5E_printf_stack(ptr noundef nonnull @.str, ptr noundef nonnull @__func__.H5VL__register_opt_operation, i32 noundef 220, i64 noundef %50, i64 noundef %51, ptr noundef nonnull @.str.5) #2
  br label %55

53:                                               ; preds = %41
  %54 = load i32, ptr %45, align 8, !tbaa !22
  store i32 %54, ptr %2, align 4, !tbaa !21
  br label %55

55:                                               ; preds = %16, %23, %30, %37, %49, %53, %3
  %.0 = phi i32 [ -1, %16 ], [ -1, %30 ], [ -1, %37 ], [ -1, %49 ], [ 0, %53 ], [ -1, %23 ], [ 0, %3 ]
  ret i32 %.0
}